; Function Attrs: mustprogress uwtable
define dso_local noundef i32 @stbi_write_jpg(ptr nocapture noundef readonly %0, i32 noundef %1, i32 noundef %2, i32 noundef %3, ptr noundef %4, i32 noundef %5) local_unnamed_addr #3 {
  %7 = alloca %struct.stbi__write_context, align 8
  %8 = tail call noalias ptr @fopen(ptr noundef %0, ptr noundef nonnull @.str.5)
  store ptr @_ZL17stbi__stdio_writePvS_i, ptr %7, align 8
  %9 = getelementptr inbounds i8, ptr %7, i64 8
  store ptr %8, ptr %9, align 8
  %.not7 = icmp eq ptr %8, null
  br i1 %.not7, label %13, label %10

10:                                               ; preds = %6
  %11 = call fastcc noundef i32 @_ZL19stbi_write_jpg_coreP19stbi__write_contextiiiPKvi(ptr noundef nonnull %7, i32 noundef %1, i32 noundef %2, i32 noundef %3, ptr noundef %4, i32 noundef %5), !range !5
  %12 = tail call i32 @fclose(ptr noundef nonnull %8)
  br label %13

13:                                               ; preds = %6, %10
  %.0 = phi i32 [ %11, %10 ], [ 0, %6 ]
  ret i32 %.0
}